target datalayout = "e-m:e-p270:32:32-p271:32:32-p272:64:64-i64:64-i128:128-f80:128-n8:16:32:64-S128"
target triple = "x86_64-unknown-linux-gnu"

%struct.NetClientState = type { ptr, i32, %union.anon, ptr, ptr, ptr, ptr, [256 x i8], i8, ptr, i32, i8, i32, i32, i8, i8, i8, %union.anon.0 }
%union.anon = type { %struct.QTailQLink }
%struct.QTailQLink = type { ptr, ptr }
%union.anon.0 = type { %struct.QTailQLink }
%struct.VhostVDPAState = type { %struct.NetClientState, %struct.vhost_vdpa, %struct.Notifier, ptr, ptr, ptr, i8, i8, i8 }
%struct.vhost_vdpa = type { i32, i32, i32, i8, i32, %struct.MemoryListener, %struct.vhost_vdpa_iova_range, i64, i8, i8, i8, ptr, ptr, ptr, ptr, ptr, ptr, [1024 x %struct.VhostVDPAHostNotifier], %struct.anon, %struct.IOMMUNotifier }
%struct.MemoryListener = type { ptr, ptr, ptr, ptr, ptr, ptr, ptr, ptr, ptr, ptr, ptr, ptr, ptr, ptr, ptr, ptr, ptr, i32, ptr, ptr, %union.anon.1, %union.anon.2 }
%union.anon.1 = type { %struct.QTailQLink }
%union.anon.2 = type { %struct.QTailQLink }
%struct.vhost_vdpa_iova_range = type { i64, i64 }
%struct.VhostVDPAHostNotifier = type { %struct.MemoryRegion, ptr }
%struct.MemoryRegion = type { %struct.Object, i8, i8, i8, i8, i8, i8, i8, i8, i8, i8, ptr, ptr, ptr, ptr, ptr, ptr, i32, i128, i64, ptr, i64, i8, i8, i8, i8, i8, ptr, i64, i32, %union.anon.3, %union.anon.4, %union.anon.5, ptr, i32, ptr, ptr, i8 }
%struct.Object = type { ptr, ptr, ptr, i32, ptr }
%union.anon.3 = type { %struct.QTailQLink }
%union.anon.4 = type { %struct.QTailQLink }
%union.anon.5 = type { %struct.QTailQLink }
%struct.anon = type { ptr }
%struct.IOMMUNotifier = type { ptr, i32, i64, i64, i32, %struct.anon.6 }
%struct.anon.6 = type { ptr, ptr }
%struct.Notifier = type { ptr, %struct.anon.7 }
%struct.anon.7 = type { ptr, ptr }
%struct._GPtrArray = type { ptr, i32 }

; Function Attrs: nounwind sspstrong uwtable
define internal i64 @vhost_vdpa_net_svq_poll(ptr noundef %s, i64 noundef %cmds_in_flight) #0 {
entry:
  %s.addr = alloca ptr, align 8
  %cmds_in_flight.addr = alloca i64, align 8
  %svq = alloca ptr, align 8
  store ptr %s, ptr %s.addr, align 8
  store i64 %cmds_in_flight, ptr %cmds_in_flight.addr, align 8
  %0 = load ptr, ptr %s.addr, align 8
  %vhost_vdpa = getelementptr inbounds %struct.VhostVDPAState, ptr %0, i32 0, i32 1
  %shadow_vqs = getelementptr inbounds %struct.vhost_vdpa, ptr %vhost_vdpa, i32 0, i32 12
  %1 = load ptr, ptr %shadow_vqs, align 16
  %pdata = getelementptr inbounds %struct._GPtrArray, ptr %1, i32 0, i32 0
  %2 = load ptr, ptr %pdata, align 8
  %arrayidx = getelementptr ptr, ptr %2, i64 0
  %3 = load ptr, ptr %arrayidx, align 8
  store ptr %3, ptr %svq, align 8
  %4 = load ptr, ptr %svq, align 8
  %5 = load i64, ptr %cmds_in_flight.addr, align 8
  %call = call i64 @vhost_svq_poll(ptr noundef %4, i64 noundef %5)
  ret i64 %call
}

; Function Attrs: nounwind sspstrong uwtable
define internal i64 @vhost_vdpa_net_svq_flush(ptr noundef %s, i64 noundef %len) #0 {
entry:
  %retval = alloca i64, align 8
  %s.addr = alloca ptr, align 8
  %len.addr = alloca i64, align 8
  %dev_written = alloca i64, align 8
  %i = alloca i32, align 4
  store ptr %s, ptr %s.addr, align 8
  store i64 %len, ptr %len.addr, align 8
  %0 = load ptr, ptr %s.addr, align 8
  %1 = load i64, ptr %len.addr, align 8
  %call = call i64 @vhost_vdpa_net_svq_poll(ptr noundef %0, i64 noundef %1)
  store i64 %call, ptr %dev_written, align 8
  %2 = load i64, ptr %dev_written, align 8
  %3 = load i64, ptr %len.addr, align 8
  %cmp = icmp ne i64 %2, %3
  %lnot = xor i1 %cmp, true
  %lnot1 = xor i1 %lnot, true
  %lnot.ext = zext i1 %lnot1 to i32
  %conv = sext i32 %lnot.ext to i64
  %tobool = icmp ne i64 %conv, 0
  br i1 %tobool, label %if.then, label %if.end

if.then:                                          ; preds = %entry
  store i64 -5, ptr %retval, align 8
  br label %return

if.end:                                           ; preds = %entry
  store i32 0, ptr %i, align 4
  br label %for.cond

for.cond:                                         ; preds = %for.inc, %if.end
  %4 = load i32, ptr %i, align 4
  %conv2 = sext i32 %4 to i64
  %5 = load i64, ptr %len.addr, align 8
  %cmp3 = icmp ult i64 %conv2, %5
  br i1 %cmp3, label %for.body, label %for.end

for.body:                                         ; preds = %for.cond
  %6 = load ptr, ptr %s.addr, align 8
  %status = getelementptr inbounds %struct.VhostVDPAState, ptr %6, i32 0, i32 5
  %7 = load ptr, ptr %status, align 8
  %8 = load i32, ptr %i, align 4
  %idxprom = sext i32 %8 to i64
  %arrayidx = getelementptr i8, ptr %7, i64 %idxprom
  %9 = load i8, ptr %arrayidx, align 1
  %conv5 = zext i8 %9 to i32
  %cmp6 = icmp ne i32 %conv5, 0
  br i1 %cmp6, label %if.then8, label %if.end9

if.then8:                                         ; preds = %for.body
  store i64 -5, ptr %retval, align 8
  br label %return

if.end9:                                          ; preds = %for.body
  br label %for.inc

for.inc:                                          ; preds = %if.end9
  %10 = load i32, ptr %i, align 4
  %inc = add i32 %10, 1
  store i32 %inc, ptr %i, align 4
  br label %for.cond, !llvm.loop !13

for.end:                                          ; preds = %for.cond
  store i64 0, ptr %retval, align 8
  br label %return

return:                                           ; preds = %for.end, %if.then8, %if.then
  %11 = load i64, ptr %retval, align 8
  ret i64 %11
}