; Function Attrs: nounwind sspstrong uwtable
define internal fastcc range(i64 -5, 1) i64 @vhost_vdpa_net_svq_flush(ptr noundef readonly captures(none) %s, i64 noundef %len) unnamed_addr #0 {
entry:
  %0 = getelementptr i8, ptr %s, i64 640
  %s.val = load ptr, ptr %0, align 16
  %s.val.val = load ptr, ptr %s.val, align 8
  %s.val.val.val = load ptr, ptr %s.val.val, align 8
  %call.i = tail call i64 @vhost_svq_poll(ptr noundef %s.val.val.val, i64 noundef %len) #13
  %cmp.not = icmp eq i64 %call.i, %len
  br i1 %cmp.not, label %for.cond.preheader, label %return

for.cond.preheader:                               ; preds = %entry
  %cmp36.not = icmp eq i64 %len, 0
  br i1 %cmp36.not, label %return, label %for.body.lr.ph

for.body.lr.ph:                                   ; preds = %for.cond.preheader
  %status = getelementptr inbounds nuw i8, ptr %s, i64 295704
  %1 = load ptr, ptr %status, align 8
  br label %for.body

for.cond:                                         ; preds = %for.body
  %inc = add i32 %i.07, 1
  %conv2 = sext i32 %inc to i64
  %cmp3 = icmp ugt i64 %len, %conv2
  br i1 %cmp3, label %for.body, label %return, !llvm.loop !14

for.body:                                         ; preds = %for.body.lr.ph, %for.cond
  %conv28 = phi i64 [ 0, %for.body.lr.ph ], [ %conv2, %for.cond ]
  %i.07 = phi i32 [ 0, %for.body.lr.ph ], [ %inc, %for.cond ]
  %arrayidx = getelementptr i8, ptr %1, i64 %conv28
  %2 = load i8, ptr %arrayidx, align 1
  %cmp6.not = icmp eq i8 %2, 0
  br i1 %cmp6.not, label %for.cond, label %return

return:                                           ; preds = %for.body, %for.cond, %for.cond.preheader, %entry
  %retval.0 = phi i64 [ -5, %entry ], [ 0, %for.cond.preheader ], [ -5, %for.body ], [ 0, %for.cond ]
  ret i64 %retval.0
}